(dp0
Vxrv4
p1
(dp2
Vload
p3
(dp4
Vload
p5
(dp6
Vshortterm
p7
F0.21833333333333335
sVlongterm
p8
F0.14833333333333334
sVmidterm
p9
F0.18166666666666664
sssVprocesses
p10
(dp11
Vps_state-stopped
p12
F0.0
sVps_state-sleeping
p13
F87.16666666666667
sVps_state-paging
p14
F0.0
sVfork_rate
p15
F1.9166591666666666
sVps_state-zombies
p16
F0.0
sVps_state-blocked
p17
F0.0
sVps_state-running
p18
F0.16666666666666666
ssVinterface-eth4
p19
(dp20
Vif_octets
p21
(dp22
Vrx
p23
F0.0
sVtx
p24
F0.0
ssVif_errors
p25
(dp26
Vrx
p27
F0.0
sVtx
p28
F0.0
ssVif_packets
p29
(dp30
Vrx
p31
F0.0
sVtx
p32
F0.0
sssVinterface-eth3
p33
(dp34
Vif_octets
p35
(dp36
Vrx
p37
F159.91661683333334
sVtx
p38
F557.4854725
ssVif_errors
p39
(dp40
Vrx
p41
F0.0
sVtx
p42
F0.0
ssVif_packets
p43
(dp44
Vrx
p45
F0.16666500000000004
sVtx
p46
F0.533333
sssVinterface-eth2
p47
(dp48
Vif_octets
p49
(dp50
Vrx
p51
F0.0
sVtx
p52
F0.0
ssVif_errors
p53
(dp54
Vrx
p55
F0.0
sVtx
p56
F0.0
ssVif_packets
p57
(dp58
Vrx
p59
F0.0
sVtx
p60
F0.0
sssVinterface-eth1
p61
(dp62
Vif_octets
p63
(dp64
Vrx
p65
F3061.2450996666666
sVtx
p66
F856.8433716666667
ssVif_errors
p67
(dp68
Vrx
p69
F0.0
sVtx
p70
F0.0
ssVif_packets
p71
(dp72
Vrx
p73
F8.250104
sVtx
p74
F1.1666931666666667
sssVinterface-eth0
p75
(dp76
Vif_octets
p77
(dp78
Vrx
p79
F185.1501435
sVtx
p80
F560.2826431666666
ssVif_errors
p81
(dp82
Vrx
p83
F0.0
sVtx
p84
F0.0
ssVif_packets
p85
(dp86
Vrx
p87
F0.18333233333333335
sVtx
p88
F0.5499975
sssVdisk-sda2
p89
(dp90
Vdisk_merged
p91
(dp92
Vread
p93
F0.0
sVwrite
p94
F0.0
ssVdisk_ops
p95
(dp96
Vread
p97
F0.0
sVwrite
p98
F0.0
ssVdisk_time
p99
(dp100
Vread
p101
F0.0
sVwrite
p102
F0.0
ssVdisk_octets
p103
(dp104
Vread
p105
F0.0
sVwrite
p106
F0.0
sssVdisk-sda1
p107
(dp108
Vdisk_merged
p109
(dp110
Vread
p111
F0.0
sVwrite
p112
F0.4666416666666667
ssVdisk_ops
p113
(dp114
Vread
p115
F0.0
sVwrite
p116
F1.3333401666666667
ssVdisk_time
p117
(dp118
Vread
p119
F0.0
sVwrite
p120
F0.65
ssVdisk_octets
p121
(dp122
Vread
p123
F0.0
sVwrite
p124
F7372.7276265
sssVmemory
p125
(dp126
Vmemory-buffered
p127
F166735872.0
sVmemory-cached
p128
F671634773.3333334
sVmemory-used
p129
F1503322112.0
sVmemory-free
p130
F3917658794.6666665
ssVdisk-sda5
p131
(dp132
Vdisk_merged
p133
(dp134
Vread
p135
F0.0
sVwrite
p136
F0.0
ssVdisk_ops
p137
(dp138
Vread
p139
F0.0
sVwrite
p140
F0.0
ssVdisk_time
p141
(dp142
Vread
p143
F0.0
sVwrite
p144
F0.0
ssVdisk_octets
p145
(dp146
Vread
p147
F0.0
sVwrite
p148
F0.0
sssVcpu-0
p149
(dp150
Vcpu-idle
p151
F93.75039
sVcpu-interrupt
p152
F0.0166665
sVcpu-wait
p153
F0.0166665
sVcpu-user
p154
F2.6666716666666663
sVcpu-softirq
p155
F0.0
sVcpu-steal
p156
F0.0
sVcpu-nice
p157
F2.8999905
sVcpu-system
p158
F0.5999998333333334
ssVcpu-1
p159
(dp160
Vcpu-idle
p161
F91.85064666666666
sVcpu-interrupt
p162
F0.03333566666666667
sVcpu-wait
p163
F0.03333316666666667
sVcpu-user
p164
F4.300017333333334
sVcpu-softirq
p165
F0.0
sVcpu-steal
p166
F0.0
sVcpu-nice
p167
F2.233282
sVcpu-system
p168
F1.4666501666666667
ssVdisk-sda
p169
(dp170
Vdisk_merged
p171
(dp172
Vread
p173
F0.0
sVwrite
p174
F0.4666425
ssVdisk_ops
p175
(dp176
Vread
p177
F0.0
sVwrite
p178
F1.3333376666666668
ssVdisk_time
p179
(dp180
Vread
p181
F0.0
sVwrite
p182
F0.6499998333333333
ssVdisk_octets
p183
(dp184
Vread
p185
F0.0
sVwrite
p186
F7372.725736333334
sssVdisk-sr0
p187
(dp188
Vdisk_merged
p189
(dp190
Vread
p191
F0.0
sVwrite
p192
F0.0
ssVdisk_ops
p193
(dp194
Vread
p195
F0.0
sVwrite
p196
F0.0
ssVdisk_time
p197
(dp198
Vread
p199
F0.0
sVwrite
p200
F0.0
ssVdisk_octets
p201
(dp202
Vread
p203
F0.0
sVwrite
p204
F0.0
sssVirq
p205
(dp206
Virq-MIS
p207
F0.0
sVirq-8
p208
F0.0
sVirq-9
p209
F0.0
sVirq-CAL
p210
F0.4833396666666667
sVirq-6
p211
F0.0
sVirq-7
p212
F0.0
sVirq-0
p213
F0.0
sVirq-1
p214
F0.0
sVirq-52
p215
F0.0
sVirq-53
p216
F0.0
sVirq-50
p217
F0.0
sVirq-51
p218
F0.0
sVirq-56
p219
F0.0
sVirq-57
p220
F0.0
sVirq-54
p221
F0.0
sVirq-55
p222
F0.0
sVirq-RES
p223
F17.21681
sVirq-58
p224
F0.0
sVirq-59
p225
F0.0
sVirq-70
p226
F0.0
sVirq-71
p227
F0.0
sVirq-72
p228
F0.0
sVirq-73
p229
F0.0
sVirq-63
p230
F0.0
sVirq-IWI
p231
F8.066653
sVirq-18
p232
F1.2333341666666666
sVirq-19
p233
F9.233317333333334
sVirq-16
p234
F0.0
sVirq-17
p235
F2.2000031666666664
sVirq-14
p236
F0.0
sVirq-15
p237
F0.966667
sVirq-12
p238
F0.0
sVirq-SPU
p239
F0.0
sVirq-LOC
p240
F154.96712833333333
sVirq-MCE
p241
F0.0
sVirq-NMI
p242
F0.0
sVirq-MCP
p243
F0.0
sVirq-41
p244
F0.0
sVirq-40
p245
F0.0
sVirq-43
p246
F0.0
sVirq-42
p247
F0.0
sVirq-45
p248
F0.0
sVirq-44
p249
F0.0
sVirq-47
p250
F0.0
sVirq-46
p251
F0.0
sVirq-49
p252
F0.0
sVirq-48
p253
F0.0
sVirq-61
p254
F0.0
sVirq-60
p255
F0.0
sVirq-67
p256
F0.0
sVirq-66
p257
F0.0
sVirq-65
p258
F0.0
sVirq-64
p259
F0.0
sVirq-TLB
p260
F2.833326833333333
sVirq-RTR
p261
F0.0
sVirq-ERR
p262
F0.0
sVirq-PMI
p263
F0.0
sVirq-69
p264
F0.0
sVirq-68
p265
F0.0
sVirq-TRM
p266
F0.0
sVirq-62
p267
F0.0
sVirq-THR
p268
F0.0
ssVusers
p269
(dp270
Vusers
p271
F0.0
sssVgraph_host
p272
(dp273
Vcpu-1
p274
(dp275
Vcpu-user
p276
NssVprocesses
p277
(dp278
Vps_state-sleeping
p279
NssVinterface-eth3
p280
(dp281
Vif_packets
p282
(dp283
Vrx
p284
NsssVdisk-sda
p285
(dp286
Vdisk_ops
p287
(dp288
Vread
p289
NsssVirq
p290
(dp291
Virq-6
p292
NsVirq-7
p293
NsVirq-0
p294
NsVirq-1
p295
NsVirq-41
p296
NsVirq-42
p297
NsVirq-45
p298
NsVirq-44
p299
NsVirq-46
p300
NsVirq-49
p301
NsVirq-48
p302
NsVirq-MCP
p303
NsssVxrv1
p304
(dp305
Vload
p306
(dp307
Vload
p308
(dp309
Vshortterm
p310
F0.035
sVlongterm
p311
F0.07
sVmidterm
p312
F0.07333333333333335
sssVprocesses
p313
(dp314
Vps_state-stopped
p315
F0.0
sVps_state-sleeping
p316
F109.0
sVps_state-paging
p317
F0.0
sVfork_rate
p318
F1.6669115
sVps_state-zombies
p319
F0.0
sVps_state-blocked
p320
F0.0
sVps_state-running
p321
F0.0
ssVinterface-eth4
p322
(dp323
Vif_octets
p324
(dp325
Vrx
p326
F0.0
sVtx
p327
F0.0
ssVif_errors
p328
(dp329
Vrx
p330
F0.0
sVtx
p331
F0.0
ssVif_packets
p332
(dp333
Vrx
p334
F0.0
sVtx
p335
F0.0
sssVinterface-eth3
p336
(dp337
Vif_octets
p338
(dp339
Vrx
p340
F182.88761050000002
sVtx
p341
F6.233662166666666
ssVif_errors
p342
(dp343
Vrx
p344
F0.0
sVtx
p345
F0.0
ssVif_packets
p346
(dp347
Vrx
p348
F0.15001583333333332
sVtx
p349
F0.033335833333333335
sssVinterface-eth2
p350
(dp351
Vif_octets
p352
(dp353
Vrx
p354
F0.0
sVtx
p355
F0.0
ssVif_errors
p356
(dp357
Vrx
p358
F0.0
sVtx
p359
F0.0
ssVif_packets
p360
(dp361
Vrx
p362
F0.0
sVtx
p363
F0.0
sssVinterface-eth1
p364
(dp365
Vif_octets
p366
(dp367
Vrx
p368
F3432.3824041666667
sVtx
p369
F657.2058456666666
ssVif_errors
p370
(dp371
Vrx
p372
F0.0
sVtx
p373
F0.0
ssVif_packets
p374
(dp375
Vrx
p376
F8.871448166666667
sVtx
p377
F1.1007803333333335
sssVinterface-eth0
p378
(dp379
Vif_octets
p380
(dp381
Vrx
p382
F532.2294105
sVtx
p383
F159.91515066666668
ssVif_errors
p384
(dp385
Vrx
p386
F0.0
sVtx
p387
F0.0
ssVif_packets
p388
(dp389
Vrx
p390
F0.5166408333333333
sVtx
p391
F0.16665083333333333
sssVdisk-sda2
p392
(dp393
Vdisk_merged
p394
(dp395
Vread
p396
F0.0
sVwrite
p397
F0.0
ssVdisk_ops
p398
(dp399
Vread
p400
F0.0
sVwrite
p401
F0.0
ssVdisk_time
p402
(dp403
Vread
p404
F0.0
sVwrite
p405
F0.0
ssVdisk_octets
p406
(dp407
Vread
p408
F0.0
sVwrite
p409
F0.0
sssVdisk-sda1
p410
(dp411
Vdisk_merged
p412
(dp413
Vread
p414
F0.0
sVwrite
p415
F6.465968499999999
ssVdisk_ops
p416
(dp417
Vread
p418
F0.0
sVwrite
p419
F3.4663388333333334
ssVdisk_time
p420
(dp421
Vread
p422
F0.0
sVwrite
p423
F1.4333561666666668
ssVdisk_octets
p424
(dp425
Vread
p426
F0.0
sVwrite
p427
F42458.855659166664
sssVmemory
p428
(dp429
Vmemory-buffered
p430
F193396736.0
sVmemory-cached
p431
F997326848.0
sVmemory-used
p432
F1779307861.3333333
sVmemory-free
p433
F3289082538.6666665
ssVdisk-sda
p434
(dp435
Vdisk_merged
p436
(dp437
Vread
p438
F0.0
sVwrite
p439
F6.466260500000001
ssVdisk_ops
p440
(dp441
Vread
p442
F0.0
sVwrite
p443
F3.4664933333333328
ssVdisk_time
p444
(dp445
Vread
p446
F0.0
sVwrite
p447
F1.4333561666666663
ssVdisk_octets
p448
(dp449
Vread
p450
F0.0
sVwrite
p451
F42459.47950716667
sssVcpu-0
p452
(dp453
Vcpu-idle
p454
F99.06613166666666
sVcpu-interrupt
p455
F0.016666666666666666
sVcpu-wait
p456
F0.0
sVcpu-user
p457
F0.299999
sVcpu-softirq
p458
F0.0
sVcpu-steal
p459
F0.0
sVcpu-nice
p460
F0.0
sVcpu-system
p461
F0.5833299999999999
ssVcpu-1
p462
(dp463
Vcpu-idle
p464
F99.33238
sVcpu-interrupt
p465
F0.0
sVcpu-wait
p466
F0.0
sVcpu-user
p467
F0.26665083333333334
sVcpu-softirq
p468
F0.0
sVcpu-steal
p469
F0.0
sVcpu-nice
p470
F0.0
sVcpu-system
p471
F0.3833216666666666
ssVcpu-2
p472
(dp473
Vcpu-idle
p474
F99.16574700000001
sVcpu-interrupt
p475
F0.0
sVcpu-wait
p476
F0.0
sVcpu-user
p477
F0.6332776666666667
sVcpu-softirq
p478
F0.0
sVcpu-steal
p479
F0.0
sVcpu-nice
p480
F0.0
sVcpu-system
p481
F0.19998400000000002
ssVcpu-3
p482
(dp483
Vcpu-idle
p484
F93.31572716666665
sVcpu-interrupt
p485
F0.049998999999999995
sVcpu-wait
p486
F0.31665283333333333
sVcpu-user
p487
F5.633296833333333
sVcpu-softirq
p488
F0.0
sVcpu-steal
p489
F0.0
sVcpu-nice
p490
F0.0
sVcpu-system
p491
F0.5833238333333334
ssVdisk-sda5
p492
(dp493
Vdisk_merged
p494
(dp495
Vread
p496
F0.0
sVwrite
p497
F0.0
ssVdisk_ops
p498
(dp499
Vread
p500
F0.0
sVwrite
p501
F0.0
ssVdisk_time
p502
(dp503
Vread
p504
F0.0
sVwrite
p505
F0.0
ssVdisk_octets
p506
(dp507
Vread
p508
F0.0
sVwrite
p509
F0.0
sssVdisk-sr0
p510
(dp511
Vdisk_merged
p512
(dp513
Vread
p514
F0.0
sVwrite
p515
F0.0
ssVdisk_ops
p516
(dp517
Vread
p518
F0.0
sVwrite
p519
F0.0
ssVdisk_time
p520
(dp521
Vread
p522
F0.0
sVwrite
p523
F0.0
ssVdisk_octets
p524
(dp525
Vread
p526
F0.0
sVwrite
p527
F0.0
sssVusers
p528
(dp529
Vusers
p530
F2.0
sssVxrv2
p531
(dp532
Vload
p533
(dp534
Vload
p535
(dp536
Vshortterm
p537
F0.09833333333333334
sVlongterm
p538
F0.06666666666666667
sVmidterm
p539
F0.06666666666666667
sssVprocesses
p540
(dp541
Vps_state-stopped
p542
F0.0
sVps_state-sleeping
p543
F86.83333333333333
sVps_state-paging
p544
F0.0
sVfork_rate
p545
F1.6833349999999998
sVps_state-zombies
p546
F0.0
sVps_state-blocked
p547
F0.0
sVps_state-running
p548
F0.0
ssVinterface-eth4
p549
(dp550
Vif_octets
p551
(dp552
Vrx
p553
F0.0
sVtx
p554
F0.0
ssVif_errors
p555
(dp556
Vrx
p557
F0.0
sVtx
p558
F0.0
ssVif_packets
p559
(dp560
Vrx
p561
F0.0
sVtx
p562
F0.0
sssVinterface-eth3
p563
(dp564
Vif_octets
p565
(dp566
Vrx
p567
F557.5510315
sVtx
p568
F185.14834199999999
ssVif_errors
p569
(dp570
Vrx
p571
F0.0
sVtx
p572
F0.0
ssVif_packets
p573
(dp574
Vrx
p575
F0.53334
sVtx
p576
F0.18333716666666666
sssVinterface-eth2
p577
(dp578
Vif_octets
p579
(dp580
Vrx
p581
F0.0
sVtx
p582
F0.0
ssVif_errors
p583
(dp584
Vrx
p585
F0.0
sVtx
p586
F0.0
ssVif_packets
p587
(dp588
Vrx
p589
F0.0
sVtx
p590
F0.0
sssVinterface-eth1
p591
(dp592
Vif_octets
p593
(dp594
Vrx
p595
F3393.7395396666666
sVtx
p596
F865.9515873333334
ssVif_errors
p597
(dp598
Vrx
p599
F0.0
sVtx
p600
F0.0
ssVif_packets
p601
(dp602
Vrx
p603
F9.266508
sVtx
p604
F1.2833013333333334
sssVinterface-eth0
p605
(dp606
Vif_octets
p607
(dp608
Vrx
p609
F185.15220466666665
sVtx
p610
F554.7491021666666
ssVif_errors
p611
(dp612
Vrx
p613
F0.0
sVtx
p614
F0.0
ssVif_packets
p615
(dp616
Vrx
p617
F0.18333966666666668
sVtx
p618
F0.5166703333333333
sssVdisk-sda2
p619
(dp620
Vdisk_merged
p621
(dp622
Vread
p623
F0.0
sVwrite
p624
F0.0
ssVdisk_ops
p625
(dp626
Vread
p627
F0.0
sVwrite
p628
F0.0
ssVdisk_time
p629
(dp630
Vread
p631
F0.0
sVwrite
p632
F0.0
ssVdisk_octets
p633
(dp634
Vread
p635
F0.0
sVwrite
p636
F0.0
sssVdisk-sda1
p637
(dp638
Vdisk_merged
p639
(dp640
Vread
p641
F0.0
sVwrite
p642
F0.18333633333333332
ssVdisk_ops
p643
(dp644
Vread
p645
F0.0
sVwrite
p646
F2.3333858333333333
ssVdisk_time
p647
(dp648
Vread
p649
F0.0
sVwrite
p650
F1.04998
ssVdisk_octets
p651
(dp652
Vread
p653
F0.0
sVwrite
p654
F10308.489650166666
sssVmemory
p655
(dp656
Vmemory-buffered
p657
F181051392.0
sVmemory-cached
p658
F698361856.0
sVmemory-used
p659
F1546782720.0
sVmemory-free
p660
F3833155584.0
ssVdisk-sda5
p661
(dp662
Vdisk_merged
p663
(dp664
Vread
p665
F0.0
sVwrite
p666
F0.0
ssVdisk_ops
p667
(dp668
Vread
p669
F0.0
sVwrite
p670
F0.0
ssVdisk_time
p671
(dp672
Vread
p673
F0.0
sVwrite
p674
F0.0
ssVdisk_octets
p675
(dp676
Vread
p677
F0.0
sVwrite
p678
F0.0
sssVcpu-0
p679
(dp680
Vcpu-idle
p681
F94.39993316666666
sVcpu-interrupt
p682
F0.016666666666666666
sVcpu-wait
p683
F0.1833341666666667
sVcpu-user
p684
F4.600033499999999
sVcpu-softirq
p685
F0.0
sVcpu-steal
p686
F0.0
sVcpu-nice
p687
F0.0
sVcpu-system
p688
F0.7166658333333333
ssVcpu-1
p689
(dp690
Vcpu-idle
p691
F96.86669866666666
sVcpu-interrupt
p692
F0.016665333333333334
sVcpu-wait
p693
F0.0
sVcpu-user
p694
F2.0166395
sVcpu-softirq
p695
F0.0
sVcpu-steal
p696
F0.0
sVcpu-nice
p697
F0.0
sVcpu-system
p698
F1.0333181666666666
ssVdisk-sda
p699
(dp700
Vdisk_merged
p701
(dp702
Vread
p703
F0.0
sVwrite
p704
F0.18333616666666666
ssVdisk_ops
p705
(dp706
Vread
p707
F0.0
sVwrite
p708
F2.333365166666667
ssVdisk_time
p709
(dp710
Vread
p711
F0.0
sVwrite
p712
F1.0499815
ssVdisk_octets
p713
(dp714
Vread
p715
F0.0
sVwrite
p716
F10308.398617833333
sssVdisk-sr0
p717
(dp718
Vdisk_merged
p719
(dp720
Vread
p721
F0.0
sVwrite
p722
F0.0
ssVdisk_ops
p723
(dp724
Vread
p725
F0.0
sVwrite
p726
F0.0
ssVdisk_time
p727
(dp728
Vread
p729
F0.0
sVwrite
p730
F0.0
ssVdisk_octets
p731
(dp732
Vread
p733
F0.0
sVwrite
p734
F0.0
sssVirq
p735
(dp736
Virq-MIS
p737
F0.0
sVirq-8
p738
F0.0
sVirq-9
p739
F0.0
sVirq-CAL
p740
F1.6500028333333334
sVirq-6
p741
F0.0
sVirq-7
p742
F0.0
sVirq-0
p743
F0.0
sVirq-1
p744
F0.0
sVirq-52
p745
F0.0
sVirq-53
p746
F0.0
sVirq-50
p747
F0.0
sVirq-51
p748
F0.0
sVirq-56
p749
F0.0
sVirq-57
p750
F0.0
sVirq-54
p751
F0.0
sVirq-55
p752
F0.0
sVirq-RES
p753
F17.583343166666666
sVirq-58
p754
F0.0
sVirq-59
p755
F0.0
sVirq-70
p756
F0.0
sVirq-71
p757
F0.0
sVirq-72
p758
F0.0
sVirq-73
p759
F0.0
sVirq-63
p760
F0.0
sVirq-IWI
p761
F5.616664833333334
sVirq-18
p762
F2.3999978333333334
sVirq-ERR
p763
F0.0
sVirq-16
p764
F10.2333295
sVirq-17
p765
F1.7999999999999998
sVirq-14
p766
F0.0
sVirq-15
p767
F0.9833306666666667
sVirq-12
p768
F0.0
sVirq-SPU
p769
F0.0
sVirq-LOC
p770
F141.99967683333333
sVirq-MCE
p771
F0.0
sVirq-NMI
p772
F0.0
sVirq-MCP
p773
F0.03333383333333333
sVirq-41
p774
F0.0
sVirq-40
p775
F0.0
sVirq-43
p776
F0.0
sVirq-42
p777
F0.0
sVirq-45
p778
F0.0
sVirq-44
p779
F0.0
sVirq-47
p780
F0.0
sVirq-46
p781
F0.0
sVirq-49
p782
F0.0
sVirq-48
p783
F0.0
sVirq-61
p784
F0.0
sVirq-60
p785
F0.0
sVirq-67
p786
F0.0
sVirq-66
p787
F0.0
sVirq-65
p788
F0.0
sVirq-64
p789
F0.0
sVirq-TLB
p790
F2.4333354999999997
sVirq-RTR
p791
F0.0
sVirq-PMI
p792
F0.0
sVirq-69
p793
F0.0
sVirq-68
p794
F0.0
sVirq-TRM
p795
F0.0
sVirq-62
p796
F0.0
sVirq-THR
p797
F0.0
ssVusers
p798
(dp799
Vusers
p800
F0.0
sssVxrv3
p801
(dp802
Vload
p803
(dp804
Vload
p805
(dp806
Vshortterm
p807
F0.19499999999999998
sVlongterm
p808
F0.15
sVmidterm
p809
F0.17333333333333334
sssVprocesses
p810
(dp811
Vps_state-stopped
p812
F0.0
sVps_state-sleeping
p813
F86.0
sVps_state-paging
p814
F0.0
sVfork_rate
p815
F1.8995488333333332
sVps_state-zombies
p816
F0.0
sVps_state-blocked
p817
F0.0
sVps_state-running
p818
F0.0
ssVinterface-eth4
p819
(dp820
Vif_octets
p821
(dp822
Vrx
p823
F0.0
sVtx
p824
F0.0
ssVif_errors
p825
(dp826
Vrx
p827
F0.0
sVtx
p828
F0.0
ssVif_packets
p829
(dp830
Vrx
p831
F0.0
sVtx
p832
F0.0
sssVinterface-eth3
p833
(dp834
Vif_octets
p835
(dp836
Vrx
p837
F557.4874765
sVtx
p838
F185.15062200000003
ssVif_errors
p839
(dp840
Vrx
p841
F0.0
sVtx
p842
F0.0
ssVif_packets
p843
(dp844
Vrx
p845
F0.5333383333333334
sVtx
p846
F0.1833366666666667
sssVinterface-eth2
p847
(dp848
Vif_octets
p849
(dp850
Vrx
p851
F0.0
sVtx
p852
F0.0
ssVif_errors
p853
(dp854
Vrx
p855
F0.0
sVtx
p856
F0.0
ssVif_packets
p857
(dp858
Vrx
p859
F0.0
sVtx
p860
F0.0
sssVinterface-eth1
p861
(dp862
Vif_octets
p863
(dp864
Vrx
p865
F3046.9212745
sVtx
p866
F857.2703835000001
ssVif_errors
p867
(dp868
Vrx
p869
F0.0
sVtx
p870
F0.0
ssVif_packets
p871
(dp872
Vrx
p873
F8.1165215
sVtx
p874
F1.183299
sssVinterface-eth0
p875
(dp876
Vif_octets
p877
(dp878
Vrx
p879
F6.233245166666666
sVtx
p880
F157.63361733333335
ssVif_errors
p881
(dp882
Vrx
p883
F0.0
sVtx
p884
F0.0
ssVif_packets
p885
(dp886
Vrx
p887
F0.03333283333333333
sVtx
p888
F0.13333316666666664
sssVdisk-sda2
p889
(dp890
Vdisk_merged
p891
(dp892
Vread
p893
F0.0
sVwrite
p894
F0.0
ssVdisk_ops
p895
(dp896
Vread
p897
F0.0
sVwrite
p898
F0.0
ssVdisk_time
p899
(dp900
Vread
p901
F0.0
sVwrite
p902
F0.0
ssVdisk_octets
p903
(dp904
Vread
p905
F0.0
sVwrite
p906
F0.0
sssVdisk-sda1
p907
(dp908
Vdisk_merged
p909
(dp910
Vread
p911
F0.0
sVwrite
p912
F0.3166751666666667
ssVdisk_ops
p913
(dp914
Vread
p915
F0.0
sVwrite
p916
F2.2666601666666666
ssVdisk_time
p917
(dp918
Vread
p919
F0.0
sVwrite
p920
F0.5499735
ssVdisk_octets
p921
(dp922
Vread
p923
F0.0
sVwrite
p924
F10581.306228833333
sssVmemory
p925
(dp926
Vmemory-buffered
p927
F167706624.0
sVmemory-cached
p928
F679573504.0
sVmemory-used
p929
F1641102677.3333333
sVmemory-free
p930
F3770968746.6666665
ssVdisk-sda5
p931
(dp932
Vdisk_merged
p933
(dp934
Vread
p935
F0.0
sVwrite
p936
F0.0
ssVdisk_ops
p937
(dp938
Vread
p939
F0.0
sVwrite
p940
F0.0
ssVdisk_time
p941
(dp942
Vread
p943
F0.0
sVwrite
p944
F0.0
ssVdisk_octets
p945
(dp946
Vread
p947
F0.0
sVwrite
p948
F0.0
sssVcpu-0
p949
(dp950
Vcpu-idle
p951
F94.43328866666667
sVcpu-interrupt
p952
F0.016666666666666666
sVcpu-wait
p953
F0.08333383333333333
sVcpu-user
p954
F2.033333
sVcpu-softirq
p955
F0.0
sVcpu-steal
p956
F0.0
sVcpu-nice
p957
F2.5833308333333336
sVcpu-system
p958
F0.7999996666666666
ssVcpu-1
p959
(dp960
Vcpu-idle
p961
F90.94991116666667
sVcpu-interrupt
p962
F0.033335166666666666
sVcpu-wait
p963
F0.016666666666666666
sVcpu-user
p964
F5.2333430000000005
sVcpu-softirq
p965
F0.0
sVcpu-steal
p966
F0.0
sVcpu-nice
p967
F2.616674833333333
sVcpu-system
p968
F1.0500045
ssVdisk-sda
p969
(dp970
Vdisk_merged
p971
(dp972
Vread
p973
F0.0
sVwrite
p974
F0.3166665
ssVdisk_ops
p975
(dp976
Vread
p977
F0.0
sVwrite
p978
F2.2666595
ssVdisk_time
p979
(dp980
Vread
p981
F0.0
sVwrite
p982
F0.5499756666666666
ssVdisk_octets
p983
(dp984
Vread
p985
F0.0
sVwrite
p986
F10581.300097166668
sssVdisk-sr0
p987
(dp988
Vdisk_merged
p989
(dp990
Vread
p991
F0.0
sVwrite
p992
F0.0
ssVdisk_ops
p993
(dp994
Vread
p995
F0.0
sVwrite
p996
F0.0
ssVdisk_time
p997
(dp998
Vread
p999
F0.0
sVwrite
p1000
F0.0
ssVdisk_octets
p1001
(dp1002
Vread
p1003
F0.0
sVwrite
p1004
F0.0
sssVirq
p1005
(dp1006
Virq-MIS
p1007
F0.0
sVirq-8
p1008
F0.0
sVirq-9
p1009
F0.0
sVirq-CAL
p1010
F0.33333299999999993
sVirq-6
p1011
F0.0
sVirq-7
p1012
F0.0
sVirq-0
p1013
F0.0
sVirq-1
p1014
F0.0
sVirq-52
p1015
F0.0
sVirq-53
p1016
F0.0
sVirq-50
p1017
F0.0
sVirq-51
p1018
F0.0
sVirq-56
p1019
F0.0
sVirq-57
p1020
F0.0
sVirq-54
p1021
F0.0
sVirq-55
p1022
F0.0
sVirq-RES
p1023
F28.89989633333333
sVirq-58
p1024
F0.0
sVirq-59
p1025
F0.0
sVirq-70
p1026
F0.0
sVirq-71
p1027
F0.0
sVirq-72
p1028
F0.0
sVirq-73
p1029
F0.0
sVirq-63
p1030
F0.0
sVirq-IWI
p1031
F7.8999595000000005
sVirq-18
p1032
F0.6500025
sVirq-19
p1033
F9.333326666666666
sVirq-16
p1034
F0.0
sVirq-17
p1035
F2.9666828333333335
sVirq-14
p1036
F0.0
sVirq-15
p1037
F1.0000048333333333
sVirq-12
p1038
F0.0
sVirq-SPU
p1039
F0.0
sVirq-LOC
p1040
F155.63380716666666
sVirq-MCE
p1041
F0.0
sVirq-NMI
p1042
F0.0
sVirq-MCP
p1043
F0.0
sVirq-41
p1044
F0.0
sVirq-40
p1045
F0.0
sVirq-43
p1046
F0.0
sVirq-42
p1047
F0.0
sVirq-45
p1048
F0.0
sVirq-44
p1049
F0.0
sVirq-47
p1050
F0.0
sVirq-46
p1051
F0.0
sVirq-49
p1052
F0.0
sVirq-48
p1053
F0.0
sVirq-61
p1054
F0.0
sVirq-60
p1055
F0.0
sVirq-67
p1056
F0.0
sVirq-66
p1057
F0.0
sVirq-65
p1058
F0.0
sVirq-64
p1059
F0.0
sVirq-TLB
p1060
F2.783325666666667
sVirq-RTR
p1061
F0.0
sVirq-ERR
p1062
F0.0
sVirq-PMI
p1063
F0.0
sVirq-69
p1064
F0.0
sVirq-68
p1065
F0.0
sVirq-TRM
p1066
F0.0
sVirq-62
p1067
F0.0
sVirq-THR
p1068
F0.0
ssVusers
p1069
(dp1070
Vusers
p1071
F0.0
sss.